target datalayout = "e-m:e-p270:32:32-p271:32:32-p272:64:64-i64:64-i128:128-f80:128-n8:16:32:64-S128"
target triple = "x86_64-pc-linux-gnu"

%"struct.Luau::CodeGen::A64::RegisterA64" = type { i8 }
%"struct.Luau::CodeGen::A64::IrRegAllocA64" = type <{ ptr, ptr, %"struct.Luau::CodeGen::A64::IrRegAllocA64::Set", %"struct.Luau::CodeGen::A64::IrRegAllocA64::Set", %"class.std::vector", i32, i8, [3 x i8] }>
%"struct.Luau::CodeGen::A64::IrRegAllocA64::Set" = type { i32, i32, i32, [32 x i32] }
%"class.std::vector" = type { %"struct.std::_Vector_base" }
%"struct.std::_Vector_base" = type { %"struct.std::_Vector_base<Luau::CodeGen::A64::IrRegAllocA64::Spill, std::allocator<Luau::CodeGen::A64::IrRegAllocA64::Spill>>::_Vector_impl" }
%"struct.std::_Vector_base<Luau::CodeGen::A64::IrRegAllocA64::Spill, std::allocator<Luau::CodeGen::A64::IrRegAllocA64::Spill>>::_Vector_impl" = type { %"struct.std::_Vector_base<Luau::CodeGen::A64::IrRegAllocA64::Spill, std::allocator<Luau::CodeGen::A64::IrRegAllocA64::Spill>>::_Vector_impl_data" }
%"struct.std::_Vector_base<Luau::CodeGen::A64::IrRegAllocA64::Spill, std::allocator<Luau::CodeGen::A64::IrRegAllocA64::Spill>>::_Vector_impl_data" = type { ptr, ptr, ptr }

; Function Attrs: mustprogress nounwind uwtable
define dso_local noundef nonnull align 4 dereferenceable(140) ptr @_ZN4Luau7CodeGen3A6413IrRegAllocA646getSetENS1_7KindA64E(ptr noundef nonnull align 8 dereferenceable(325) %0, i8 noundef zeroext %1) #1 align 2 {
  %3 = alloca ptr, align 8
  %4 = alloca ptr, align 8
  %5 = alloca i8, align 1
  store ptr %0, ptr %4, align 8, !tbaa !20
  store i8 %1, ptr %5, align 1, !tbaa !58
  %6 = load ptr, ptr %4, align 8
  %7 = load i8, ptr %5, align 1, !tbaa !58
  switch i8 %7, label %12 [
    i8 2, label %8
    i8 1, label %8
    i8 3, label %10
    i8 4, label %10
    i8 5, label %10
  ]

8:                                                ; preds = %2, %2
  %9 = getelementptr inbounds nuw %"struct.Luau::CodeGen::A64::IrRegAllocA64", ptr %6, i32 0, i32 2
  store ptr %9, ptr %3, align 8
  br label %13

10:                                               ; preds = %2, %2, %2
  %11 = getelementptr inbounds nuw %"struct.Luau::CodeGen::A64::IrRegAllocA64", ptr %6, i32 0, i32 3
  store ptr %11, ptr %3, align 8
  br label %13

12:                                               ; preds = %2
  unreachable

13:                                               ; preds = %10, %8
  %14 = load ptr, ptr %3, align 8
  ret ptr %14
}

; Function Attrs: mustprogress uwtable
define dso_local void @_ZN4Luau7CodeGen3A6413IrRegAllocA647freeRegENS1_11RegisterA64E(ptr noundef nonnull align 8 dereferenceable(325) %0, i8 %1) #2 align 2 {
  %3 = alloca %"struct.Luau::CodeGen::A64::RegisterA64", align 1
  %4 = alloca ptr, align 8
  %5 = alloca ptr, align 8
  %6 = getelementptr inbounds nuw %"struct.Luau::CodeGen::A64::RegisterA64", ptr %3, i32 0, i32 0
  store i8 %1, ptr %6, align 1
  store ptr %0, ptr %4, align 8, !tbaa !20
  %7 = load ptr, ptr %4, align 8
  call void @llvm.lifetime.start.p0(i64 8, ptr %5) #16
  %8 = load i8, ptr %3, align 1
  %9 = and i8 %8, 7
  %10 = call noundef nonnull align 4 dereferenceable(140) ptr @_ZN4Luau7CodeGen3A6413IrRegAllocA646getSetENS1_7KindA64E(ptr noundef nonnull align 8 dereferenceable(325) %7, i8 noundef zeroext %9)
  store ptr %10, ptr %5, align 8, !tbaa !41
  %11 = load i8, ptr %3, align 1
  %12 = lshr i8 %11, 3
  %13 = zext i8 %12 to i32
  %14 = shl i32 1, %13
  %15 = load ptr, ptr %5, align 8, !tbaa !41
  %16 = getelementptr inbounds nuw %"struct.Luau::CodeGen::A64::IrRegAllocA64::Set", ptr %15, i32 0, i32 1
  %17 = load i32, ptr %16, align 4, !tbaa !51
  %18 = or i32 %17, %14
  store i32 %18, ptr %16, align 4, !tbaa !51
  %19 = load ptr, ptr %5, align 8, !tbaa !41
  %20 = getelementptr inbounds nuw %"struct.Luau::CodeGen::A64::IrRegAllocA64::Set", ptr %19, i32 0, i32 3
  %21 = load i8, ptr %3, align 1
  %22 = lshr i8 %21, 3
  %23 = zext i8 %22 to i64
  %24 = getelementptr inbounds nuw [32 x i32], ptr %20, i64 0, i64 %23
  store i32 -1, ptr %24, align 4, !tbaa !43
  call void @llvm.lifetime.end.p0(i64 8, ptr %5) #16
  ret void
}