; Function Attrs: mustprogress nofree norecurse nosync nounwind willreturn memory(argmem: readwrite) uwtable
define dso_local void @_ZN4Luau7CodeGen3A6413IrRegAllocA647freeRegENS1_11RegisterA64E(ptr noundef nonnull align 8 captures(none) dereferenceable(325) %0, i8 %1) local_unnamed_addr #5 align 2 {
  %3 = and i8 %1, 7
  %.off.i = add nsw i8 %3, -1
  %switch.i = icmp ult i8 %.off.i, 2
  %.0.v.i = select i1 %switch.i, i64 16, i64 156
  %.0.i = getelementptr inbounds nuw i8, ptr %0, i64 %.0.v.i
  %4 = lshr i8 %1, 3
  %5 = zext nneg i8 %4 to i32
  %6 = shl nuw i32 1, %5
  %7 = getelementptr inbounds nuw i8, ptr %.0.i, i64 4
  %8 = load i32, ptr %7, align 4, !tbaa !21
  %9 = or i32 %8, %6
  store i32 %9, ptr %7, align 4, !tbaa !21
  %10 = getelementptr inbounds nuw i8, ptr %.0.i, i64 12
  %11 = zext nneg i8 %4 to i64
  %12 = getelementptr inbounds nuw [32 x i32], ptr %10, i64 0, i64 %11
  store i32 -1, ptr %12, align 4, !tbaa !37
  ret void
}